; Function Attrs: mustprogress nounwind uwtable
define void @_ZN32pxrInternal_v0_24__pxrReserved__10HdCoordSysD2Ev(ptr noundef nonnull align 8 dereferenceable(24) %0) unnamed_addr #4 align 2 personality ptr @__gxx_personality_v0 {
  store ptr getelementptr inbounds inrange(-16, 40) (i8, ptr @_ZTVN32pxrInternal_v0_24__pxrReserved__10HdCoordSysE, i64 16), ptr %0, align 8
  %2 = getelementptr inbounds nuw i8, ptr %0, i64 16
  %3 = load ptr, ptr %2, align 8
  %4 = ptrtoint ptr %3 to i64
  %5 = and i64 %4, 7
  %.not.i.i = icmp eq i64 %5, 0
  br i1 %.not.i.i, label %_ZN32pxrInternal_v0_24__pxrReserved__7TfTokenD2Ev.exit, label %6

6:                                                ; preds = %1
  %7 = and i64 %4, -8
  %8 = inttoptr i64 %7 to ptr
  %9 = atomicrmw sub ptr %8, i32 2 release, align 4
  br label %_ZN32pxrInternal_v0_24__pxrReserved__7TfTokenD2Ev.exit

_ZN32pxrInternal_v0_24__pxrReserved__7TfTokenD2Ev.exit: ; preds = %1, %6
  tail call void @_ZN32pxrInternal_v0_24__pxrReserved__7HdSprimD2Ev(ptr noundef nonnull align 8 dereferenceable(16) %0) #14
  ret void
}